target datalayout = "e-m:e-p270:32:32-p271:32:32-p272:64:64-i64:64-i128:128-f80:128-n8:16:32:64-S128"
target triple = "x86_64-pc-linux-gnu"

%struct.mz_zip_archive_tag = type { i64, i64, i32, i32, i32, ptr, ptr, ptr, ptr, ptr, ptr, ptr, ptr }
%struct.mz_zip_internal_state_tag = type { %struct.mz_zip_array, %struct.mz_zip_array, %struct.mz_zip_array, ptr, ptr, i64, i64 }
%struct.mz_zip_array = type { ptr, i64, i64, i32 }

; Function Attrs: mustprogress uwtable
define i32 @mz_zip_writer_finalize_heap_archive(ptr noundef %0, ptr noundef %1, ptr noundef %2) #5 {
  %4 = alloca i32, align 4
  %5 = alloca ptr, align 8
  %6 = alloca ptr, align 8
  %7 = alloca ptr, align 8
  store ptr %0, ptr %5, align 8
  store ptr %1, ptr %6, align 8
  store ptr %2, ptr %7, align 8
  %8 = load ptr, ptr %5, align 8
  %9 = icmp ne ptr %8, null
  br i1 %9, label %10, label %21

10:                                               ; preds = %3
  %11 = load ptr, ptr %5, align 8
  %12 = getelementptr inbounds %struct.mz_zip_archive_tag, ptr %11, i32 0, i32 12
  %13 = load ptr, ptr %12, align 8
  %14 = icmp ne ptr %13, null
  br i1 %14, label %15, label %21

15:                                               ; preds = %10
  %16 = load ptr, ptr %6, align 8
  %17 = icmp ne ptr %16, null
  br i1 %17, label %18, label %21

18:                                               ; preds = %15
  %19 = load ptr, ptr %7, align 8
  %20 = icmp ne ptr %19, null
  br i1 %20, label %22, label %21

21:                                               ; preds = %18, %15, %10, %3
  store i32 0, ptr %4, align 4
  br label %58

22:                                               ; preds = %18
  %23 = load ptr, ptr %5, align 8
  %24 = getelementptr inbounds %struct.mz_zip_archive_tag, ptr %23, i32 0, i32 10
  %25 = load ptr, ptr %24, align 8
  %26 = icmp ne ptr %25, @_ZL22mz_zip_heap_write_funcPvyPKvm
  br i1 %26, label %27, label %28

27:                                               ; preds = %22
  store i32 0, ptr %4, align 4
  br label %58

28:                                               ; preds = %22
  %29 = load ptr, ptr %5, align 8
  %30 = call i32 @mz_zip_writer_finalize_archive(ptr noundef %29)
  %31 = icmp ne i32 %30, 0
  br i1 %31, label %33, label %32

32:                                               ; preds = %28
  store i32 0, ptr %4, align 4
  br label %58

33:                                               ; preds = %28
  %34 = load ptr, ptr %5, align 8
  %35 = getelementptr inbounds %struct.mz_zip_archive_tag, ptr %34, i32 0, i32 12
  %36 = load ptr, ptr %35, align 8
  %37 = getelementptr inbounds %struct.mz_zip_internal_state_tag, ptr %36, i32 0, i32 4
  %38 = load ptr, ptr %37, align 8
  %39 = load ptr, ptr %6, align 8
  store ptr %38, ptr %39, align 8
  %40 = load ptr, ptr %5, align 8
  %41 = getelementptr inbounds %struct.mz_zip_archive_tag, ptr %40, i32 0, i32 12
  %42 = load ptr, ptr %41, align 8
  %43 = getelementptr inbounds %struct.mz_zip_internal_state_tag, ptr %42, i32 0, i32 5
  %44 = load i64, ptr %43, align 8
  %45 = load ptr, ptr %7, align 8
  store i64 %44, ptr %45, align 8
  %46 = load ptr, ptr %5, align 8
  %47 = getelementptr inbounds %struct.mz_zip_archive_tag, ptr %46, i32 0, i32 12
  %48 = load ptr, ptr %47, align 8
  %49 = getelementptr inbounds %struct.mz_zip_internal_state_tag, ptr %48, i32 0, i32 4
  store ptr null, ptr %49, align 8
  %50 = load ptr, ptr %5, align 8
  %51 = getelementptr inbounds %struct.mz_zip_archive_tag, ptr %50, i32 0, i32 12
  %52 = load ptr, ptr %51, align 8
  %53 = getelementptr inbounds %struct.mz_zip_internal_state_tag, ptr %52, i32 0, i32 6
  store i64 0, ptr %53, align 8
  %54 = load ptr, ptr %5, align 8
  %55 = getelementptr inbounds %struct.mz_zip_archive_tag, ptr %54, i32 0, i32 12
  %56 = load ptr, ptr %55, align 8
  %57 = getelementptr inbounds %struct.mz_zip_internal_state_tag, ptr %56, i32 0, i32 5
  store i64 0, ptr %57, align 8
  store i32 1, ptr %4, align 4
  br label %58

58:                                               ; preds = %33, %32, %27, %21
  %59 = load i32, ptr %4, align 4
  ret i32 %59
}