; Function Attrs: mustprogress uwtable
define noundef i32 @mz_zip_writer_finalize_heap_archive(ptr noundef %0, ptr noundef writeonly %1, ptr noundef writeonly %2) local_unnamed_addr #9 {
  %.not = icmp eq ptr %0, null
  br i1 %.not, label %28, label %4

4:                                                ; preds = %3
  %5 = getelementptr inbounds i8, ptr %0, i64 88
  %6 = load ptr, ptr %5, align 8
  %7 = icmp ne ptr %6, null
  %8 = icmp ne ptr %1, null
  %or.cond = and i1 %8, %7
  %9 = icmp ne ptr %2, null
  %or.cond3 = and i1 %9, %or.cond
  br i1 %or.cond3, label %10, label %28

10:                                               ; preds = %4
  %11 = getelementptr inbounds i8, ptr %0, i64 72
  %12 = load ptr, ptr %11, align 8
  %.not19 = icmp eq ptr %12, @_ZL22mz_zip_heap_write_funcPvyPKvm
  br i1 %.not19, label %13, label %28

13:                                               ; preds = %10
  %14 = tail call i32 @mz_zip_writer_finalize_archive(ptr noundef nonnull %0), !range !16
  %.not20 = icmp eq i32 %14, 0
  br i1 %.not20, label %28, label %15

15:                                               ; preds = %13
  %16 = load ptr, ptr %5, align 8
  %17 = getelementptr inbounds i8, ptr %16, i64 104
  %18 = load ptr, ptr %17, align 8
  store ptr %18, ptr %1, align 8
  %19 = load ptr, ptr %5, align 8
  %20 = getelementptr inbounds i8, ptr %19, i64 112
  %21 = load i64, ptr %20, align 8
  store i64 %21, ptr %2, align 8
  %22 = load ptr, ptr %5, align 8
  %23 = getelementptr inbounds i8, ptr %22, i64 104
  store ptr null, ptr %23, align 8
  %24 = load ptr, ptr %5, align 8
  %25 = getelementptr inbounds i8, ptr %24, i64 120
  store i64 0, ptr %25, align 8
  %26 = load ptr, ptr %5, align 8
  %27 = getelementptr inbounds i8, ptr %26, i64 112
  store i64 0, ptr %27, align 8
  br label %28

28:                                               ; preds = %13, %10, %3, %4, %15
  %.0 = phi i32 [ 1, %15 ], [ 0, %4 ], [ 0, %3 ], [ 0, %10 ], [ 0, %13 ]
  ret i32 %.0
}